target datalayout = "e-m:e-p270:32:32-p271:32:32-p272:64:64-i64:64-i128:128-f80:128-n8:16:32:64-S128"
target triple = "x86_64-pc-linux-gnu"

@H5Z_init_g = external global i8, align 1
@H5_libterm_g = external global i8, align 1
@.str.1 = private unnamed_addr constant [101 x i8] c"generated/home/dtcxzyw/WorkSpace/Projects/compilers/llvm-opt-benchmark/bench/hdf5/hdf5/src/H5Znbit.c\00", align 1
@H5E_BADTYPE_g = external global i64, align 8
@H5E_PLINE_g = external global i64, align 8
@.str.5 = private unnamed_addr constant [44 x i8] c"nbit cannot compute parameters for datatype\00", align 1
@.str.6 = private unnamed_addr constant [27 x i8] c"nbit received bad datatype\00", align 1
@__func__.H5Z__calc_parms_array = private unnamed_addr constant [22 x i8] c"H5Z__calc_parms_array\00", align 1
@.str.15 = private unnamed_addr constant [18 x i8] c"bad base datatype\00", align 1
@.str.16 = private unnamed_addr constant [24 x i8] c"bad base datatype class\00", align 1
@H5E_CLOSEERROR_g = external global i64, align 8
@.str.17 = private unnamed_addr constant [30 x i8] c"Unable to close base datatype\00", align 1

; Function Attrs: nounwind uwtable
define internal void @H5Z__calc_parms_nooptype(ptr noundef %0) #0 {
  %2 = alloca ptr, align 8
  store ptr %0, ptr %2, align 8, !tbaa !22
  %3 = load ptr, ptr %2, align 8, !tbaa !22
  %4 = load i64, ptr %3, align 8, !tbaa !3
  %5 = add i64 %4, 1
  store i64 %5, ptr %3, align 8, !tbaa !3
  %6 = load ptr, ptr %2, align 8, !tbaa !22
  %7 = load i64, ptr %6, align 8, !tbaa !3
  %8 = add i64 %7, 1
  store i64 %8, ptr %6, align 8, !tbaa !3
  ret void
}

; Function Attrs: nounwind uwtable
define internal void @H5Z__calc_parms_atomic(ptr noundef %0) #0 {
  %2 = alloca ptr, align 8
  store ptr %0, ptr %2, align 8, !tbaa !22
  %3 = load ptr, ptr %2, align 8, !tbaa !22
  %4 = load i64, ptr %3, align 8, !tbaa !3
  %5 = add i64 %4, 1
  store i64 %5, ptr %3, align 8, !tbaa !3
  %6 = load ptr, ptr %2, align 8, !tbaa !22
  %7 = load i64, ptr %6, align 8, !tbaa !3
  %8 = add i64 %7, 1
  store i64 %8, ptr %6, align 8, !tbaa !3
  %9 = load ptr, ptr %2, align 8, !tbaa !22
  %10 = load i64, ptr %9, align 8, !tbaa !3
  %11 = add i64 %10, 1
  store i64 %11, ptr %9, align 8, !tbaa !3
  %12 = load ptr, ptr %2, align 8, !tbaa !22
  %13 = load i64, ptr %12, align 8, !tbaa !3
  %14 = add i64 %13, 1
  store i64 %14, ptr %12, align 8, !tbaa !3
  %15 = load ptr, ptr %2, align 8, !tbaa !22
  %16 = load i64, ptr %15, align 8, !tbaa !3
  %17 = add i64 %16, 1
  store i64 %17, ptr %15, align 8, !tbaa !3
  ret void
}

; Function Attrs: nounwind uwtable
define internal i32 @H5Z__calc_parms_array(ptr noundef %0, ptr noundef %1) #0 {
  %3 = alloca ptr, align 8
  %4 = alloca ptr, align 8
  %5 = alloca ptr, align 8
  %6 = alloca i32, align 4
  %7 = alloca i32, align 4
  %8 = alloca i8, align 1
  store ptr %0, ptr %3, align 8, !tbaa !13
  store ptr %1, ptr %4, align 8, !tbaa !22
  call void @llvm.lifetime.start.p0(i64 8, ptr %5) #6
  store ptr null, ptr %5, align 8, !tbaa !13
  call void @llvm.lifetime.start.p0(i64 4, ptr %6) #6
  call void @llvm.lifetime.start.p0(i64 4, ptr %7) #6
  store i32 0, ptr %7, align 4, !tbaa !7
  call void @llvm.lifetime.start.p0(i64 1, ptr %8) #6
  store i8 0, ptr %8, align 1, !tbaa !9
  %9 = load i8, ptr @H5Z_init_g, align 1, !tbaa !9, !range !11, !noundef !12
  %10 = trunc i8 %9 to i1
  br i1 %10, label %15, label %11

11:                                               ; preds = %2
  %12 = load i8, ptr @H5_libterm_g, align 1, !tbaa !9, !range !11, !noundef !12
  %13 = trunc i8 %12 to i1
  %14 = xor i1 %13, true
  br label %15

15:                                               ; preds = %11, %2
  %16 = phi i1 [ true, %2 ], [ %14, %11 ]
  %17 = xor i1 %16, true
  %18 = xor i1 %17, true
  %19 = zext i1 %18 to i32
  %20 = sext i32 %19 to i64
  %21 = call i64 @llvm.expect.i64(i64 %20, i64 1)
  %22 = icmp ne i64 %21, 0
  br i1 %22, label %23, label %177

23:                                               ; preds = %15
  %24 = load ptr, ptr %4, align 8, !tbaa !22
  %25 = load i64, ptr %24, align 8, !tbaa !3
  %26 = add i64 %25, 1
  store i64 %26, ptr %24, align 8, !tbaa !3
  %27 = load ptr, ptr %4, align 8, !tbaa !22
  %28 = load i64, ptr %27, align 8, !tbaa !3
  %29 = add i64 %28, 1
  store i64 %29, ptr %27, align 8, !tbaa !3
  %30 = load ptr, ptr %3, align 8, !tbaa !13
  %31 = call ptr @H5T_get_super(ptr noundef %30)
  store ptr %31, ptr %5, align 8, !tbaa !13
  %32 = icmp eq ptr null, %31
  br i1 %32, label %33, label %52

33:                                               ; preds = %23
  br label %34

34:                                               ; preds = %33
  br label %35

35:                                               ; preds = %34
  br label %36

36:                                               ; preds = %35
  %37 = load i64, ptr @H5E_PLINE_g, align 8, !tbaa !3
  %38 = load i64, ptr @H5E_BADTYPE_g, align 8, !tbaa !3
  %39 = call i32 (ptr, ptr, i32, i64, i64, ptr, ...) @H5E_printf_stack(ptr noundef @.str.1, ptr noundef @__func__.H5Z__calc_parms_array, i32 noundef 219, i64 noundef %37, i64 noundef %38, ptr noundef @.str.15)
  br label %40

40:                                               ; preds = %36
  br label %41

41:                                               ; preds = %40
  store i8 1, ptr %8, align 1, !tbaa !9
  %42 = load i8, ptr %8, align 1, !tbaa !9, !range !11, !noundef !12
  %43 = trunc i8 %42 to i1
  %44 = zext i1 %43 to i8
  store i8 %44, ptr %8, align 1, !tbaa !9
  br label %45

45:                                               ; preds = %41
  br label %46

46:                                               ; preds = %45
  br label %47

47:                                               ; preds = %46
  store i32 -1, ptr %7, align 4, !tbaa !7
  br label %152

48:                                               ; No predecessors!
  br label %49

49:                                               ; preds = %48
  br label %50

50:                                               ; preds = %49
  br label %51

51:                                               ; preds = %50
  br label %52

52:                                               ; preds = %51, %23
  %53 = load ptr, ptr %5, align 8, !tbaa !13
  %54 = call i32 @H5T_get_class(ptr noundef %53, i32 noundef 1)
  store i32 %54, ptr %6, align 4, !tbaa !7
  %55 = icmp eq i32 %54, -1
  br i1 %55, label %56, label %75

56:                                               ; preds = %52
  br label %57

57:                                               ; preds = %56
  br label %58

58:                                               ; preds = %57
  br label %59

59:                                               ; preds = %58
  %60 = load i64, ptr @H5E_PLINE_g, align 8, !tbaa !3
  %61 = load i64, ptr @H5E_BADTYPE_g, align 8, !tbaa !3
  %62 = call i32 (ptr, ptr, i32, i64, i64, ptr, ...) @H5E_printf_stack(ptr noundef @.str.1, ptr noundef @__func__.H5Z__calc_parms_array, i32 noundef 223, i64 noundef %60, i64 noundef %61, ptr noundef @.str.16)
  br label %63

63:                                               ; preds = %59
  br label %64

64:                                               ; preds = %63
  store i8 1, ptr %8, align 1, !tbaa !9
  %65 = load i8, ptr %8, align 1, !tbaa !9, !range !11, !noundef !12
  %66 = trunc i8 %65 to i1
  %67 = zext i1 %66 to i8
  store i8 %67, ptr %8, align 1, !tbaa !9
  br label %68

68:                                               ; preds = %64
  br label %69

69:                                               ; preds = %68
  br label %70

70:                                               ; preds = %69
  store i32 -1, ptr %7, align 4, !tbaa !7
  br label %152

71:                                               ; No predecessors!
  br label %72

72:                                               ; preds = %71
  br label %73

73:                                               ; preds = %72
  br label %74

74:                                               ; preds = %73
  br label %75

75:                                               ; preds = %74, %52
  %76 = load i32, ptr %6, align 4, !tbaa !7
  switch i32 %76, label %132 [
    i32 0, label %77
    i32 1, label %77
    i32 10, label %79
    i32 6, label %104
    i32 2, label %129
    i32 3, label %129
    i32 4, label %129
    i32 5, label %129
    i32 7, label %129
    i32 8, label %129
    i32 9, label %129
    i32 11, label %129
    i32 -1, label %131
    i32 12, label %131
  ]

77:                                               ; preds = %75, %75
  %78 = load ptr, ptr %4, align 8, !tbaa !22
  call void @H5Z__calc_parms_atomic(ptr noundef %78)
  br label %151

79:                                               ; preds = %75
  %80 = load ptr, ptr %5, align 8, !tbaa !13
  %81 = load ptr, ptr %4, align 8, !tbaa !22
  %82 = call i32 @H5Z__calc_parms_array(ptr noundef %80, ptr noundef %81)
  %83 = icmp eq i32 %82, -1
  br i1 %83, label %84, label %103

84:                                               ; preds = %79
  br label %85

85:                                               ; preds = %84
  br label %86

86:                                               ; preds = %85
  br label %87

87:                                               ; preds = %86
  %88 = load i64, ptr @H5E_PLINE_g, align 8, !tbaa !3
  %89 = load i64, ptr @H5E_BADTYPE_g, align 8, !tbaa !3
  %90 = call i32 (ptr, ptr, i32, i64, i64, ptr, ...) @H5E_printf_stack(ptr noundef @.str.1, ptr noundef @__func__.H5Z__calc_parms_array, i32 noundef 234, i64 noundef %88, i64 noundef %89, ptr noundef @.str.5)
  br label %91

91:                                               ; preds = %87
  br label %92

92:                                               ; preds = %91
  store i8 1, ptr %8, align 1, !tbaa !9
  %93 = load i8, ptr %8, align 1, !tbaa !9, !range !11, !noundef !12
  %94 = trunc i8 %93 to i1
  %95 = zext i1 %94 to i8
  store i8 %95, ptr %8, align 1, !tbaa !9
  br label %96

96:                                               ; preds = %92
  br label %97

97:                                               ; preds = %96
  br label %98

98:                                               ; preds = %97
  store i32 -1, ptr %7, align 4, !tbaa !7
  br label %152

99:                                               ; No predecessors!
  br label %100

100:                                              ; preds = %99
  br label %101

101:                                              ; preds = %100
  br label %102

102:                                              ; preds = %101
  br label %103

103:                                              ; preds = %102, %79
  br label %151

104:                                              ; preds = %75
  %105 = load ptr, ptr %5, align 8, !tbaa !13
  %106 = load ptr, ptr %4, align 8, !tbaa !22
  %107 = call i32 @H5Z__calc_parms_compound(ptr noundef %105, ptr noundef %106)
  %108 = icmp eq i32 %107, -1
  br i1 %108, label %109, label %128

109:                                              ; preds = %104
  br label %110

110:                                              ; preds = %109
  br label %111

111:                                              ; preds = %110
  br label %112

112:                                              ; preds = %111
  %113 = load i64, ptr @H5E_PLINE_g, align 8, !tbaa !3
  %114 = load i64, ptr @H5E_BADTYPE_g, align 8, !tbaa !3
  %115 = call i32 (ptr, ptr, i32, i64, i64, ptr, ...) @H5E_printf_stack(ptr noundef @.str.1, ptr noundef @__func__.H5Z__calc_parms_array, i32 noundef 239, i64 noundef %113, i64 noundef %114, ptr noundef @.str.5)
  br label %116

116:                                              ; preds = %112
  br label %117

117:                                              ; preds = %116
  store i8 1, ptr %8, align 1, !tbaa !9
  %118 = load i8, ptr %8, align 1, !tbaa !9, !range !11, !noundef !12
  %119 = trunc i8 %118 to i1
  %120 = zext i1 %119 to i8
  store i8 %120, ptr %8, align 1, !tbaa !9
  br label %121

121:                                              ; preds = %117
  br label %122

122:                                              ; preds = %121
  br label %123

123:                                              ; preds = %122
  store i32 -1, ptr %7, align 4, !tbaa !7
  br label %152

124:                                              ; No predecessors!
  br label %125

125:                                              ; preds = %124
  br label %126

126:                                              ; preds = %125
  br label %127

127:                                              ; preds = %126
  br label %128

128:                                              ; preds = %127, %104
  br label %151

129:                                              ; preds = %75, %75, %75, %75, %75, %75, %75, %75
  %130 = load ptr, ptr %4, align 8, !tbaa !22
  call void @H5Z__calc_parms_nooptype(ptr noundef %130)
  br label %151

131:                                              ; preds = %75, %75
  br label %132

132:                                              ; preds = %75, %131
  br label %133

133:                                              ; preds = %132
  br label %134

134:                                              ; preds = %133
  br label %135

135:                                              ; preds = %134
  %136 = load i64, ptr @H5E_PLINE_g, align 8, !tbaa !3
  %137 = load i64, ptr @H5E_BADTYPE_g, align 8, !tbaa !3
  %138 = call i32 (ptr, ptr, i32, i64, i64, ptr, ...) @H5E_printf_stack(ptr noundef @.str.1, ptr noundef @__func__.H5Z__calc_parms_array, i32 noundef 258, i64 noundef %136, i64 noundef %137, ptr noundef @.str.6)
  br label %139

139:                                              ; preds = %135
  br label %140

140:                                              ; preds = %139
  store i8 1, ptr %8, align 1, !tbaa !9
  %141 = load i8, ptr %8, align 1, !tbaa !9, !range !11, !noundef !12
  %142 = trunc i8 %141 to i1
  %143 = zext i1 %142 to i8
  store i8 %143, ptr %8, align 1, !tbaa !9
  br label %144

144:                                              ; preds = %140
  br label %145

145:                                              ; preds = %144
  br label %146

146:                                              ; preds = %145
  store i32 -1, ptr %7, align 4, !tbaa !7
  br label %152

147:                                              ; No predecessors!
  br label %148

148:                                              ; preds = %147
  br label %149

149:                                              ; preds = %148
  br label %150

150:                                              ; preds = %149
  br label %151

151:                                              ; preds = %150, %129, %128, %103, %77
  br label %152

152:                                              ; preds = %151, %146, %123, %98, %70, %47
  %153 = load ptr, ptr %5, align 8, !tbaa !13
  %154 = icmp ne ptr %153, null
  br i1 %154, label %155, label %176

155:                                              ; preds = %152
  %156 = load ptr, ptr %5, align 8, !tbaa !13
  %157 = call i32 @H5T_close_real(ptr noundef %156)
  %158 = icmp slt i32 %157, 0
  br i1 %158, label %159, label %175

159:                                              ; preds = %155
  br label %160

160:                                              ; preds = %159
  br label %161

161:                                              ; preds = %160
  br label %162

162:                                              ; preds = %161
  %163 = load i64, ptr @H5E_PLINE_g, align 8, !tbaa !3
  %164 = load i64, ptr @H5E_CLOSEERROR_g, align 8, !tbaa !3
  %165 = call i32 (ptr, ptr, i32, i64, i64, ptr, ...) @H5E_printf_stack(ptr noundef @.str.1, ptr noundef @__func__.H5Z__calc_parms_array, i32 noundef 265, i64 noundef %163, i64 noundef %164, ptr noundef @.str.17)
  br label %166

166:                                              ; preds = %162
  br label %167

167:                                              ; preds = %166
  store i8 1, ptr %8, align 1, !tbaa !9
  %168 = load i8, ptr %8, align 1, !tbaa !9, !range !11, !noundef !12
  %169 = trunc i8 %168 to i1
  %170 = zext i1 %169 to i8
  store i8 %170, ptr %8, align 1, !tbaa !9
  br label %171

171:                                              ; preds = %167
  br label %172

172:                                              ; preds = %171
  store i32 -1, ptr %7, align 4, !tbaa !7
  br label %173

173:                                              ; preds = %172
  br label %174

174:                                              ; preds = %173
  br label %175

175:                                              ; preds = %174, %155
  br label %176

176:                                              ; preds = %175, %152
  br label %177

177:                                              ; preds = %176, %15
  %178 = load i32, ptr %7, align 4, !tbaa !7
  call void @llvm.lifetime.end.p0(i64 1, ptr %8) #6
  call void @llvm.lifetime.end.p0(i64 4, ptr %7) #6
  call void @llvm.lifetime.end.p0(i64 4, ptr %6) #6
  call void @llvm.lifetime.end.p0(i64 8, ptr %5) #6
  ret i32 %178
}