; Function Attrs: nounwind uwtable
define internal fastcc range(i32 -1, 1) i32 @H5Z__calc_parms_array(ptr noundef nonnull %0, ptr noundef nonnull captures(none) %1) unnamed_addr #0 {
  %3 = load i8, ptr @H5Z_init_g, align 1, !tbaa !3, !range !7, !noundef !8
  %4 = trunc nuw i8 %3 to i1
  %5 = load i8, ptr @H5_libterm_g, align 1, !range !7
  %6 = trunc nuw i8 %5 to i1
  %7 = xor i1 %6, true
  %8 = select i1 %4, i1 true, i1 %7
  br i1 %8, label %9, label %55, !prof !9

9:                                                ; preds = %2
  %10 = load i64, ptr %1, align 8, !tbaa !10
  %11 = add i64 %10, 2
  store i64 %11, ptr %1, align 8, !tbaa !10
  %12 = tail call ptr @H5T_get_super(ptr noundef nonnull %0) #8
  %13 = icmp eq ptr %12, null
  br i1 %13, label %44, label %14

14:                                               ; preds = %9
  %15 = tail call i32 @H5T_get_class(ptr noundef nonnull %12, i32 noundef 1) #8
  switch i32 %15, label %40 [
    i32 -1, label %16
    i32 0, label %20
    i32 1, label %20
    i32 10, label %23
    i32 6, label %30
    i32 2, label %37
    i32 3, label %37
    i32 4, label %37
    i32 5, label %37
    i32 7, label %37
    i32 8, label %37
    i32 9, label %37
    i32 11, label %37
  ]

16:                                               ; preds = %14
  %17 = load i64, ptr @H5E_PLINE_g, align 8, !tbaa !10
  %18 = load i64, ptr @H5E_BADTYPE_g, align 8, !tbaa !10
  %19 = tail call i32 (ptr, ptr, i32, i64, i64, ptr, ...) @H5E_printf_stack(ptr noundef nonnull @.str.1, ptr noundef nonnull @__func__.H5Z__calc_parms_array, i32 noundef 223, i64 noundef %17, i64 noundef %18, ptr noundef nonnull @.str.16) #8
  br label %48

20:                                               ; preds = %14, %14
  %21 = load i64, ptr %1, align 8, !tbaa !10
  %22 = add i64 %21, 5
  store i64 %22, ptr %1, align 8, !tbaa !10
  br label %48

23:                                               ; preds = %14
  %24 = tail call fastcc i32 @H5Z__calc_parms_array(ptr noundef %12, ptr noundef %1)
  %25 = icmp eq i32 %24, -1
  br i1 %25, label %26, label %48

26:                                               ; preds = %23
  %27 = load i64, ptr @H5E_PLINE_g, align 8, !tbaa !10
  %28 = load i64, ptr @H5E_BADTYPE_g, align 8, !tbaa !10
  %29 = tail call i32 (ptr, ptr, i32, i64, i64, ptr, ...) @H5E_printf_stack(ptr noundef nonnull @.str.1, ptr noundef nonnull @__func__.H5Z__calc_parms_array, i32 noundef 234, i64 noundef %27, i64 noundef %28, ptr noundef nonnull @.str.5) #8
  br label %48

30:                                               ; preds = %14
  %31 = tail call fastcc i32 @H5Z__calc_parms_compound(ptr noundef %12, ptr noundef %1)
  %32 = icmp eq i32 %31, -1
  br i1 %32, label %33, label %48

33:                                               ; preds = %30
  %34 = load i64, ptr @H5E_PLINE_g, align 8, !tbaa !10
  %35 = load i64, ptr @H5E_BADTYPE_g, align 8, !tbaa !10
  %36 = tail call i32 (ptr, ptr, i32, i64, i64, ptr, ...) @H5E_printf_stack(ptr noundef nonnull @.str.1, ptr noundef nonnull @__func__.H5Z__calc_parms_array, i32 noundef 239, i64 noundef %34, i64 noundef %35, ptr noundef nonnull @.str.5) #8
  br label %48

37:                                               ; preds = %14, %14, %14, %14, %14, %14, %14, %14
  %38 = load i64, ptr %1, align 8, !tbaa !10
  %39 = add i64 %38, 2
  store i64 %39, ptr %1, align 8, !tbaa !10
  br label %48

40:                                               ; preds = %14
  %41 = load i64, ptr @H5E_PLINE_g, align 8, !tbaa !10
  %42 = load i64, ptr @H5E_BADTYPE_g, align 8, !tbaa !10
  %43 = tail call i32 (ptr, ptr, i32, i64, i64, ptr, ...) @H5E_printf_stack(ptr noundef nonnull @.str.1, ptr noundef nonnull @__func__.H5Z__calc_parms_array, i32 noundef 258, i64 noundef %41, i64 noundef %42, ptr noundef nonnull @.str.6) #8
  br label %48

44:                                               ; preds = %9
  %45 = load i64, ptr @H5E_PLINE_g, align 8, !tbaa !10
  %46 = load i64, ptr @H5E_BADTYPE_g, align 8, !tbaa !10
  %47 = tail call i32 (ptr, ptr, i32, i64, i64, ptr, ...) @H5E_printf_stack(ptr noundef nonnull @.str.1, ptr noundef nonnull @__func__.H5Z__calc_parms_array, i32 noundef 219, i64 noundef %45, i64 noundef %46, ptr noundef nonnull @.str.15) #8
  br label %55

48:                                               ; preds = %20, %37, %23, %30, %40, %33, %26, %16
  %.1.ph = phi i32 [ 0, %20 ], [ 0, %23 ], [ -1, %26 ], [ 0, %30 ], [ -1, %33 ], [ 0, %37 ], [ -1, %40 ], [ -1, %16 ]
  %49 = tail call i32 @H5T_close_real(ptr noundef nonnull %12) #8
  %50 = icmp slt i32 %49, 0
  br i1 %50, label %51, label %55

51:                                               ; preds = %48
  %52 = load i64, ptr @H5E_PLINE_g, align 8, !tbaa !10
  %53 = load i64, ptr @H5E_CLOSEERROR_g, align 8, !tbaa !10
  %54 = tail call i32 (ptr, ptr, i32, i64, i64, ptr, ...) @H5E_printf_stack(ptr noundef nonnull @.str.1, ptr noundef nonnull @__func__.H5Z__calc_parms_array, i32 noundef 265, i64 noundef %52, i64 noundef %53, ptr noundef nonnull @.str.17) #8
  br label %55

55:                                               ; preds = %44, %51, %48, %2
  %.0 = phi i32 [ -1, %51 ], [ %.1.ph, %48 ], [ -1, %44 ], [ 0, %2 ]
  ret i32 %.0
}